target datalayout = "e-m:e-p270:32:32-p271:32:32-p272:64:64-i64:64-i128:128-f80:128-n8:16:32:64-S128"
target triple = "x86_64-pc-linux-gnu"

%struct.H5T_t = type { %struct.H5O_shared_t, ptr, %struct.H5O_loc_t, %struct.H5G_name_t, ptr }
%struct.H5O_shared_t = type { i32, ptr, i32, %union.anon }
%union.anon = type { %struct.H5O_mesg_loc_t }
%struct.H5O_mesg_loc_t = type { i32, i64 }
%struct.H5O_loc_t = type { ptr, i64, i8 }
%struct.H5G_name_t = type { ptr, ptr, i32 }
%struct.H5T_shared_t = type { i64, i32, i32, i64, i32, i8, ptr, ptr, %union.anon.0 }
%union.anon.0 = type { %struct.H5T_array_t }
%struct.H5T_array_t = type { i64, i32, [32 x i64] }
%struct.H5T_compnd_t = type { i32, i32, i32, i8, ptr, i64 }
%struct.H5T_enum_t = type { i32, i32, i32, ptr, ptr }
%struct.H5T_cmemb_t = type { ptr, i64, i64, ptr }

@.str = private unnamed_addr constant [103 x i8] c"generated/home/dtcxzyw/WorkSpace/Projects/compilers/llvm-opt-benchmark/bench/hdf5/hdf5/src/H5Tfields.c\00", align 1
@H5E_ARGS_g = external global i64, align 8
@H5E_BADTYPE_g = external global i64, align 8
@.str.5 = private unnamed_addr constant [39 x i8] c"operation not supported for type class\00", align 1
@__func__.H5T__get_member_name = private unnamed_addr constant [21 x i8] c"H5T__get_member_name\00", align 1
@H5E_BADVALUE_g = external global i64, align 8
@.str.7 = private unnamed_addr constant [22 x i8] c"invalid member number\00", align 1

; Function Attrs: nounwind uwtable
define noalias ptr @H5T__get_member_name(ptr noundef %0, i32 noundef %1) #0 {
  %3 = alloca ptr, align 8
  %4 = alloca i32, align 4
  %5 = alloca ptr, align 8
  %6 = alloca i8, align 1
  store ptr %0, ptr %3, align 8
  store i32 %1, ptr %4, align 4
  store ptr null, ptr %5, align 8
  store i8 0, ptr %6, align 1
  %7 = load ptr, ptr %3, align 8
  %8 = getelementptr inbounds %struct.H5T_t, ptr %7, i32 0, i32 1
  %9 = load ptr, ptr %8, align 8
  %10 = getelementptr inbounds %struct.H5T_shared_t, ptr %9, i32 0, i32 2
  %11 = load i32, ptr %10, align 4
  switch i32 %11, label %86 [
    i32 6, label %12
    i32 8, label %49
    i32 -1, label %85
    i32 0, label %85
    i32 1, label %85
    i32 2, label %85
    i32 3, label %85
    i32 4, label %85
    i32 5, label %85
    i32 7, label %85
    i32 9, label %85
    i32 10, label %85
    i32 11, label %85
  ]

12:                                               ; preds = %2
  %13 = load i32, ptr %4, align 4
  %14 = load ptr, ptr %3, align 8
  %15 = getelementptr inbounds %struct.H5T_t, ptr %14, i32 0, i32 1
  %16 = load ptr, ptr %15, align 8
  %17 = getelementptr inbounds %struct.H5T_shared_t, ptr %16, i32 0, i32 8
  %18 = getelementptr inbounds %struct.H5T_compnd_t, ptr %17, i32 0, i32 1
  %19 = load i32, ptr %18, align 4
  %20 = icmp uge i32 %13, %19
  br i1 %20, label %21, label %36

21:                                               ; preds = %12
  br label %22

22:                                               ; preds = %21
  br label %23

23:                                               ; preds = %22
  br label %24

24:                                               ; preds = %23
  %25 = load i64, ptr @H5E_ARGS_g, align 8
  %26 = load i64, ptr @H5E_BADVALUE_g, align 8
  %27 = call i32 (ptr, ptr, i32, i64, i64, ptr, ...) @H5E_printf_stack(ptr noundef @.str, ptr noundef @__func__.H5T__get_member_name, i32 noundef 155, i64 noundef %25, i64 noundef %26, ptr noundef @.str.7)
  br label %28

28:                                               ; preds = %24
  store i8 1, ptr %6, align 1
  %29 = load i8, ptr %6, align 1
  %30 = trunc i8 %29 to i1
  %31 = zext i1 %30 to i8
  store i8 %31, ptr %6, align 1
  br label %32

32:                                               ; preds = %28
  br label %33

33:                                               ; preds = %32
  store ptr null, ptr %5, align 8
  br label %102

34:                                               ; No predecessors!
  br label %35

35:                                               ; preds = %34
  br label %36

36:                                               ; preds = %35, %12
  %37 = load ptr, ptr %3, align 8
  %38 = getelementptr inbounds %struct.H5T_t, ptr %37, i32 0, i32 1
  %39 = load ptr, ptr %38, align 8
  %40 = getelementptr inbounds %struct.H5T_shared_t, ptr %39, i32 0, i32 8
  %41 = getelementptr inbounds %struct.H5T_compnd_t, ptr %40, i32 0, i32 4
  %42 = load ptr, ptr %41, align 8
  %43 = load i32, ptr %4, align 4
  %44 = zext i32 %43 to i64
  %45 = getelementptr inbounds %struct.H5T_cmemb_t, ptr %42, i64 %44
  %46 = getelementptr inbounds %struct.H5T_cmemb_t, ptr %45, i32 0, i32 0
  %47 = load ptr, ptr %46, align 8
  %48 = call noalias ptr @H5MM_xstrdup(ptr noundef %47)
  store ptr %48, ptr %5, align 8
  br label %101

49:                                               ; preds = %2
  %50 = load i32, ptr %4, align 4
  %51 = load ptr, ptr %3, align 8
  %52 = getelementptr inbounds %struct.H5T_t, ptr %51, i32 0, i32 1
  %53 = load ptr, ptr %52, align 8
  %54 = getelementptr inbounds %struct.H5T_shared_t, ptr %53, i32 0, i32 8
  %55 = getelementptr inbounds %struct.H5T_enum_t, ptr %54, i32 0, i32 1
  %56 = load i32, ptr %55, align 4
  %57 = icmp uge i32 %50, %56
  br i1 %57, label %58, label %73

58:                                               ; preds = %49
  br label %59

59:                                               ; preds = %58
  br label %60

60:                                               ; preds = %59
  br label %61

61:                                               ; preds = %60
  %62 = load i64, ptr @H5E_ARGS_g, align 8
  %63 = load i64, ptr @H5E_BADVALUE_g, align 8
  %64 = call i32 (ptr, ptr, i32, i64, i64, ptr, ...) @H5E_printf_stack(ptr noundef @.str, ptr noundef @__func__.H5T__get_member_name, i32 noundef 161, i64 noundef %62, i64 noundef %63, ptr noundef @.str.7)
  br label %65

65:                                               ; preds = %61
  store i8 1, ptr %6, align 1
  %66 = load i8, ptr %6, align 1
  %67 = trunc i8 %66 to i1
  %68 = zext i1 %67 to i8
  store i8 %68, ptr %6, align 1
  br label %69

69:                                               ; preds = %65
  br label %70

70:                                               ; preds = %69
  store ptr null, ptr %5, align 8
  br label %102

71:                                               ; No predecessors!
  br label %72

72:                                               ; preds = %71
  br label %73

73:                                               ; preds = %72, %49
  %74 = load ptr, ptr %3, align 8
  %75 = getelementptr inbounds %struct.H5T_t, ptr %74, i32 0, i32 1
  %76 = load ptr, ptr %75, align 8
  %77 = getelementptr inbounds %struct.H5T_shared_t, ptr %76, i32 0, i32 8
  %78 = getelementptr inbounds %struct.H5T_enum_t, ptr %77, i32 0, i32 4
  %79 = load ptr, ptr %78, align 8
  %80 = load i32, ptr %4, align 4
  %81 = zext i32 %80 to i64
  %82 = getelementptr inbounds ptr, ptr %79, i64 %81
  %83 = load ptr, ptr %82, align 8
  %84 = call noalias ptr @H5MM_xstrdup(ptr noundef %83)
  store ptr %84, ptr %5, align 8
  br label %101

85:                                               ; preds = %2, %2, %2, %2, %2, %2, %2, %2, %2, %2, %2
  br label %86

86:                                               ; preds = %85, %2
  br label %87

87:                                               ; preds = %86
  br label %88

88:                                               ; preds = %87
  br label %89

89:                                               ; preds = %88
  %90 = load i64, ptr @H5E_ARGS_g, align 8
  %91 = load i64, ptr @H5E_BADTYPE_g, align 8
  %92 = call i32 (ptr, ptr, i32, i64, i64, ptr, ...) @H5E_printf_stack(ptr noundef @.str, ptr noundef @__func__.H5T__get_member_name, i32 noundef 177, i64 noundef %90, i64 noundef %91, ptr noundef @.str.5)
  br label %93

93:                                               ; preds = %89
  store i8 1, ptr %6, align 1
  %94 = load i8, ptr %6, align 1
  %95 = trunc i8 %94 to i1
  %96 = zext i1 %95 to i8
  store i8 %96, ptr %6, align 1
  br label %97

97:                                               ; preds = %93
  br label %98

98:                                               ; preds = %97
  store ptr null, ptr %5, align 8
  br label %102

99:                                               ; No predecessors!
  br label %100

100:                                              ; preds = %99
  br label %101

101:                                              ; preds = %100, %73, %36
  br label %102

102:                                              ; preds = %101, %98, %70, %33
  %103 = load ptr, ptr %5, align 8
  ret ptr %103
}