; Function Attrs: nounwind uwtable
define noalias ptr @H5T__get_member_name(ptr noundef readonly captures(none) %0, i32 noundef %1) local_unnamed_addr #0 {
  %3 = getelementptr inbounds nuw i8, ptr %0, i64 40
  %4 = load ptr, ptr %3, align 8
  %5 = getelementptr inbounds nuw i8, ptr %4, i64 12
  %6 = load i32, ptr %5, align 4
  switch i32 %6, label %35 [
    i32 6, label %7
    i32 8, label %21
  ]

7:                                                ; preds = %2
  %8 = getelementptr inbounds nuw i8, ptr %4, i64 52
  %9 = load i32, ptr %8, align 4
  %.not13 = icmp ult i32 %1, %9
  br i1 %.not13, label %14, label %10

10:                                               ; preds = %7
  %11 = load i64, ptr @H5E_ARGS_g, align 8
  %12 = load i64, ptr @H5E_BADVALUE_g, align 8
  %13 = tail call i32 (ptr, ptr, i32, i64, i64, ptr, ...) @H5E_printf_stack(ptr noundef nonnull @.str, ptr noundef nonnull @__func__.H5T__get_member_name, i32 noundef 155, i64 noundef %11, i64 noundef %12, ptr noundef nonnull @.str.7) #5
  br label %39

14:                                               ; preds = %7
  %15 = getelementptr inbounds nuw i8, ptr %4, i64 64
  %16 = load ptr, ptr %15, align 8
  %17 = zext i32 %1 to i64
  %18 = getelementptr inbounds nuw %struct.H5T_cmemb_t, ptr %16, i64 %17
  %19 = load ptr, ptr %18, align 8
  %20 = tail call noalias ptr @H5MM_xstrdup(ptr noundef %19) #5
  br label %39

21:                                               ; preds = %2
  %22 = getelementptr inbounds nuw i8, ptr %4, i64 52
  %23 = load i32, ptr %22, align 4
  %.not = icmp ult i32 %1, %23
  br i1 %.not, label %28, label %24

24:                                               ; preds = %21
  %25 = load i64, ptr @H5E_ARGS_g, align 8
  %26 = load i64, ptr @H5E_BADVALUE_g, align 8
  %27 = tail call i32 (ptr, ptr, i32, i64, i64, ptr, ...) @H5E_printf_stack(ptr noundef nonnull @.str, ptr noundef nonnull @__func__.H5T__get_member_name, i32 noundef 161, i64 noundef %25, i64 noundef %26, ptr noundef nonnull @.str.7) #5
  br label %39

28:                                               ; preds = %21
  %29 = getelementptr inbounds nuw i8, ptr %4, i64 72
  %30 = load ptr, ptr %29, align 8
  %31 = zext i32 %1 to i64
  %32 = getelementptr inbounds nuw ptr, ptr %30, i64 %31
  %33 = load ptr, ptr %32, align 8
  %34 = tail call noalias ptr @H5MM_xstrdup(ptr noundef %33) #5
  br label %39

35:                                               ; preds = %2
  %36 = load i64, ptr @H5E_ARGS_g, align 8
  %37 = load i64, ptr @H5E_BADTYPE_g, align 8
  %38 = tail call i32 (ptr, ptr, i32, i64, i64, ptr, ...) @H5E_printf_stack(ptr noundef nonnull @.str, ptr noundef nonnull @__func__.H5T__get_member_name, i32 noundef 177, i64 noundef %36, i64 noundef %37, ptr noundef nonnull @.str.5) #5
  br label %39

39:                                               ; preds = %14, %28, %35, %24, %10
  %.0 = phi ptr [ null, %35 ], [ null, %24 ], [ %34, %28 ], [ null, %10 ], [ %20, %14 ]
  ret ptr %.0
}